target datalayout = "e-m:e-p270:32:32-p271:32:32-p272:64:64-i64:64-i128:128-f80:128-n8:16:32:64-S128"
target triple = "x86_64-pc-linux-gnu"

%struct.RStruct = type { %struct.RBasic, %union.anon.12 }
%struct.RBasic = type { i64, i64 }
%union.anon.12 = type { %struct.anon.13 }
%struct.anon.13 = type { i64, ptr }

@ruby_current_ec = external thread_local global ptr, align 8

; Function Attrs: nounwind sspstrong uwtable
define internal ptr @struct_heap_alloc(i64 noundef %0, i64 noundef %1) #0 {
  %3 = alloca i64, align 8
  %4 = alloca i64, align 8
  store i64 %0, ptr %3, align 8, !tbaa !7
  store i64 %1, ptr %4, align 8, !tbaa !7
  %5 = load i64, ptr %4, align 8, !tbaa !7
  %6 = call noalias nonnull ptr @ruby_xmalloc2(i64 noundef %5, i64 noundef 8) #34
  ret ptr %6
}

; Function Attrs: inlinehint nounwind sspstrong uwtable
define internal ptr @rb_current_execution_context(i1 noundef zeroext %0) #1 {
  %2 = alloca i8, align 1
  %3 = alloca ptr, align 8
  %4 = zext i1 %0 to i8
  store i8 %4, ptr %2, align 1, !tbaa !32
  call void @llvm.lifetime.start.p0(i64 8, ptr %3) #26
  %5 = call align 8 ptr @llvm.threadlocal.address.p0(ptr align 8 @ruby_current_ec)
  %6 = load ptr, ptr %5, align 8, !tbaa !60
  store ptr %6, ptr %3, align 8, !tbaa !60
  %7 = load ptr, ptr %3, align 8, !tbaa !60
  call void @llvm.lifetime.end.p0(i64 8, ptr %3) #26
  ret ptr %7
}

; Function Attrs: nounwind sspstrong uwtable
define internal i64 @struct_alloc(i64 noundef %0) #0 {
  %2 = alloca i64, align 8
  %3 = alloca i64, align 8
  %4 = alloca i64, align 8
  %5 = alloca i64, align 8
  %6 = alloca i64, align 8
  %7 = alloca ptr, align 8
  %8 = alloca i32, align 4
  %9 = alloca ptr, align 8
  store i64 %0, ptr %3, align 8, !tbaa !7
  call void @llvm.lifetime.start.p0(i64 8, ptr %4) #26
  %10 = load i64, ptr %3, align 8, !tbaa !7
  %11 = call i64 @num_members(i64 noundef %10)
  store i64 %11, ptr %4, align 8, !tbaa !7
  call void @llvm.lifetime.start.p0(i64 8, ptr %5) #26
  %12 = load i64, ptr %4, align 8, !tbaa !7
  %13 = mul i64 8, %12
  %14 = add i64 16, %13
  store i64 %14, ptr %5, align 8, !tbaa !7
  call void @llvm.lifetime.start.p0(i64 8, ptr %6) #26
  store i64 41, ptr %6, align 8, !tbaa !7
  %15 = load i64, ptr %4, align 8, !tbaa !7
  %16 = icmp sgt i64 %15, 0
  br i1 %16, label %17, label %49

17:                                               ; preds = %1
  %18 = load i64, ptr %5, align 8, !tbaa !7
  %19 = call zeroext i1 @rb_gc_size_allocatable_p(i64 noundef %18)
  br i1 %19, label %20, label %49

20:                                               ; preds = %17
  %21 = load i64, ptr %4, align 8, !tbaa !7
  %22 = shl i64 %21, 13
  %23 = load i64, ptr %6, align 8, !tbaa !7
  %24 = or i64 %23, %22
  store i64 %24, ptr %6, align 8, !tbaa !7
  call void @llvm.lifetime.start.p0(i64 8, ptr %7) #26
  %25 = load i64, ptr %6, align 8, !tbaa !7
  %26 = and i64 %25, 32
  %27 = icmp ne i64 %26, 0
  br i1 %27, label %28, label %35

28:                                               ; preds = %20
  %29 = call ptr @rb_current_execution_context(i1 noundef zeroext true)
  %30 = load i64, ptr %3, align 8, !tbaa !7
  %31 = load i64, ptr %6, align 8, !tbaa !7
  %32 = and i64 %31, -33
  %33 = load i64, ptr %5, align 8, !tbaa !7
  %34 = call i64 @rb_wb_protected_newobj_of(ptr noundef %29, i64 noundef %30, i64 noundef %32, i64 noundef %33)
  br label %40

35:                                               ; preds = %20
  %36 = load i64, ptr %3, align 8, !tbaa !7
  %37 = load i64, ptr %6, align 8, !tbaa !7
  %38 = load i64, ptr %5, align 8, !tbaa !7
  %39 = call i64 @rb_wb_unprotected_newobj_of(i64 noundef %36, i64 noundef %37, i64 noundef %38)
  br label %40

40:                                               ; preds = %35, %28
  %41 = phi i64 [ %34, %28 ], [ %39, %35 ]
  %42 = inttoptr i64 %41 to ptr
  store ptr %42, ptr %7, align 8, !tbaa !19
  %43 = load ptr, ptr %7, align 8, !tbaa !19
  %44 = getelementptr inbounds nuw %struct.RStruct, ptr %43, i32 0, i32 1
  %45 = getelementptr inbounds [1 x i64], ptr %44, i64 0, i64 0
  %46 = load i64, ptr %4, align 8, !tbaa !7
  call void @rb_mem_clear(ptr noundef %45, i64 noundef %46) #30
  %47 = load ptr, ptr %7, align 8, !tbaa !19
  %48 = ptrtoint ptr %47 to i64
  store i64 %48, ptr %2, align 8
  store i32 1, ptr %8, align 4
  call void @llvm.lifetime.end.p0(i64 8, ptr %7) #26
  br label %84

49:                                               ; preds = %17, %1
  call void @llvm.lifetime.start.p0(i64 8, ptr %9) #26
  %50 = load i64, ptr %6, align 8, !tbaa !7
  %51 = and i64 %50, 32
  %52 = icmp ne i64 %51, 0
  br i1 %52, label %53, label %59

53:                                               ; preds = %49
  %54 = call ptr @rb_current_execution_context(i1 noundef zeroext true)
  %55 = load i64, ptr %3, align 8, !tbaa !7
  %56 = load i64, ptr %6, align 8, !tbaa !7
  %57 = and i64 %56, -33
  %58 = call i64 @rb_wb_protected_newobj_of(ptr noundef %54, i64 noundef %55, i64 noundef %57, i64 noundef 32)
  br label %63

59:                                               ; preds = %49
  %60 = load i64, ptr %3, align 8, !tbaa !7
  %61 = load i64, ptr %6, align 8, !tbaa !7
  %62 = call i64 @rb_wb_unprotected_newobj_of(i64 noundef %60, i64 noundef %61, i64 noundef 32)
  br label %63

63:                                               ; preds = %59, %53
  %64 = phi i64 [ %58, %53 ], [ %62, %59 ]
  %65 = inttoptr i64 %64 to ptr
  store ptr %65, ptr %9, align 8, !tbaa !19
  %66 = load ptr, ptr %9, align 8, !tbaa !19
  %67 = ptrtoint ptr %66 to i64
  %68 = load i64, ptr %4, align 8, !tbaa !7
  %69 = call ptr @struct_heap_alloc(i64 noundef %67, i64 noundef %68)
  %70 = load ptr, ptr %9, align 8, !tbaa !19
  %71 = getelementptr inbounds nuw %struct.RStruct, ptr %70, i32 0, i32 1
  %72 = getelementptr inbounds nuw %struct.anon.13, ptr %71, i32 0, i32 1
  store ptr %69, ptr %72, align 8, !tbaa !13
  %73 = load ptr, ptr %9, align 8, !tbaa !19
  %74 = getelementptr inbounds nuw %struct.RStruct, ptr %73, i32 0, i32 1
  %75 = getelementptr inbounds nuw %struct.anon.13, ptr %74, i32 0, i32 1
  %76 = load ptr, ptr %75, align 8, !tbaa !13
  %77 = load i64, ptr %4, align 8, !tbaa !7
  call void @rb_mem_clear(ptr noundef %76, i64 noundef %77) #30
  %78 = load i64, ptr %4, align 8, !tbaa !7
  %79 = load ptr, ptr %9, align 8, !tbaa !19
  %80 = getelementptr inbounds nuw %struct.RStruct, ptr %79, i32 0, i32 1
  %81 = getelementptr inbounds nuw %struct.anon.13, ptr %80, i32 0, i32 0
  store i64 %78, ptr %81, align 8, !tbaa !13
  %82 = load ptr, ptr %9, align 8, !tbaa !19
  %83 = ptrtoint ptr %82 to i64
  store i64 %83, ptr %2, align 8
  store i32 1, ptr %8, align 4
  call void @llvm.lifetime.end.p0(i64 8, ptr %9) #26
  br label %84

84:                                               ; preds = %63, %40
  call void @llvm.lifetime.end.p0(i64 8, ptr %6) #26
  call void @llvm.lifetime.end.p0(i64 8, ptr %5) #26
  call void @llvm.lifetime.end.p0(i64 8, ptr %4) #26
  %85 = load i64, ptr %2, align 8
  ret i64 %85
}