; Function Attrs: nounwind sspstrong uwtable
define internal i64 @struct_alloc(i64 noundef %0) #0 {
  %2 = tail call fastcc i64 @num_members(i64 noundef %0)
  %3 = shl i64 %2, 3
  %4 = add i64 %3, 16
  %5 = icmp sgt i64 %2, 0
  br i1 %5, label %6, label %16

6:                                                ; preds = %1
  %7 = tail call zeroext i1 @rb_gc_size_allocatable_p(i64 noundef %4) #19
  br i1 %7, label %8, label %16

8:                                                ; preds = %6
  %9 = shl i64 %2, 13
  %10 = or disjoint i64 %9, 9
  %11 = tail call align 8 ptr @llvm.threadlocal.address.p0(ptr align 8 @ruby_current_ec)
  %12 = load ptr, ptr %11, align 8, !tbaa !20
  %13 = tail call i64 @rb_wb_protected_newobj_of(ptr noundef %12, i64 noundef %0, i64 noundef %10, i64 noundef %4) #19
  %14 = inttoptr i64 %13 to ptr
  %15 = getelementptr inbounds nuw i8, ptr %14, i64 16
  tail call void @rb_mem_clear(ptr noundef nonnull %15, i64 noundef %2) #23
  br label %24

16:                                               ; preds = %1, %6
  %17 = tail call align 8 ptr @llvm.threadlocal.address.p0(ptr align 8 @ruby_current_ec)
  %18 = load ptr, ptr %17, align 8, !tbaa !20
  %19 = tail call i64 @rb_wb_protected_newobj_of(ptr noundef %18, i64 noundef %0, i64 noundef 9, i64 noundef 32) #19
  %20 = inttoptr i64 %19 to ptr
  %21 = tail call noalias nonnull ptr @ruby_xmalloc2(i64 noundef %2, i64 noundef 8) #24
  %22 = getelementptr inbounds nuw i8, ptr %20, i64 16
  %23 = getelementptr inbounds nuw i8, ptr %20, i64 24
  store ptr %21, ptr %23, align 8, !tbaa !13
  tail call void @rb_mem_clear(ptr noundef nonnull %21, i64 noundef %2) #23
  store i64 %2, ptr %22, align 8, !tbaa !13
  br label %24

24:                                               ; preds = %16, %8
  %.0 = phi i64 [ %13, %8 ], [ %19, %16 ]
  ret i64 %.0
}